
demo.elf:     file format elf32-avr

Sections:
Idx Name          Size      VMA       LMA       File off  Algn
  0 .data         00000002  00800100  000003a6  0000043a  2**0
                  CONTENTS, ALLOC, LOAD, DATA
  1 .text         000003a6  00000000  00000000  00000094  2**1
                  CONTENTS, ALLOC, LOAD, READONLY, CODE
  2 .bss          00000026  00800102  00800102  0000043c  2**0
                  ALLOC
  3 .stab         000006cc  00000000  00000000  0000043c  2**2
                  CONTENTS, READONLY, DEBUGGING
  4 .stabstr      00000054  00000000  00000000  00000b08  2**0
                  CONTENTS, READONLY, DEBUGGING
  5 .comment      00000011  00000000  00000000  00000b5c  2**0
                  CONTENTS, READONLY

Disassembly of section .text:

00000000 <__vectors>:
   0:	19 c0       	rjmp	.+50     	; 0x34 <__ctors_end>
   2:	33 c0       	rjmp	.+102    	; 0x6a <__bad_interrupt>
   4:	32 c0       	rjmp	.+100    	; 0x6a <__bad_interrupt>
   6:	31 c0       	rjmp	.+98     	; 0x6a <__bad_interrupt>
   8:	30 c0       	rjmp	.+96     	; 0x6a <__bad_interrupt>
   a:	2f c0       	rjmp	.+94     	; 0x6a <__bad_interrupt>
   c:	2e c0       	rjmp	.+92     	; 0x6a <__bad_interrupt>
   e:	2d c0       	rjmp	.+90     	; 0x6a <__bad_interrupt>
  10:	2c c0       	rjmp	.+88     	; 0x6a <__bad_interrupt>
  12:	2b c0       	rjmp	.+86     	; 0x6a <__bad_interrupt>
  14:	2a c0       	rjmp	.+84     	; 0x6a <__bad_interrupt>
  16:	29 c0       	rjmp	.+82     	; 0x6a <__bad_interrupt>
  18:	28 c0       	rjmp	.+80     	; 0x6a <__bad_interrupt>
  1a:	27 c0       	rjmp	.+78     	; 0x6a <__bad_interrupt>
  1c:	27 c0       	rjmp	.+78     	; 0x6c <__vector_14>
  1e:	25 c0       	rjmp	.+74     	; 0x6a <__bad_interrupt>
  20:	24 c0       	rjmp	.+72     	; 0x6a <__bad_interrupt>
  22:	23 c0       	rjmp	.+70     	; 0x6a <__bad_interrupt>
  24:	22 c0       	rjmp	.+68     	; 0x6a <__bad_interrupt>
  26:	21 c0       	rjmp	.+66     	; 0x6a <__bad_interrupt>
  28:	20 c0       	rjmp	.+64     	; 0x6a <__bad_interrupt>
  2a:	1f c0       	rjmp	.+62     	; 0x6a <__bad_interrupt>
  2c:	1e c0       	rjmp	.+60     	; 0x6a <__bad_interrupt>
  2e:	1d c0       	rjmp	.+58     	; 0x6a <__bad_interrupt>
  30:	1c c0       	rjmp	.+56     	; 0x6a <__bad_interrupt>
  32:	1b c0       	rjmp	.+54     	; 0x6a <__bad_interrupt>

00000034 <__ctors_end>:
  34:	11 24       	eor	r1, r1
  36:	1f be       	out	0x3f, r1	; 63
  38:	cf ef       	ldi	r28, 0xFF	; 255
  3a:	d4 e0       	ldi	r29, 0x04	; 4
  3c:	de bf       	out	0x3e, r29	; 62
  3e:	cd bf       	out	0x3d, r28	; 61

00000040 <__do_copy_data>:
  40:	11 e0       	ldi	r17, 0x01	; 1
  42:	a0 e0       	ldi	r26, 0x00	; 0
  44:	b1 e0       	ldi	r27, 0x01	; 1
  46:	e6 ea       	ldi	r30, 0xA6	; 166
  48:	f3 e0       	ldi	r31, 0x03	; 3
  4a:	02 c0       	rjmp	.+4      	; 0x50 <__do_copy_data+0x10>
  4c:	05 90       	lpm	r0, Z+
  4e:	0d 92       	st	X+, r0
  50:	a2 30       	cpi	r26, 0x02	; 2
  52:	b1 07       	cpc	r27, r17
  54:	d9 f7       	brne	.-10     	; 0x4c <__do_copy_data+0xc>

00000056 <__do_clear_bss>:
  56:	11 e0       	ldi	r17, 0x01	; 1
  58:	a2 e0       	ldi	r26, 0x02	; 2
  5a:	b1 e0       	ldi	r27, 0x01	; 1
  5c:	01 c0       	rjmp	.+2      	; 0x60 <.do_clear_bss_start>

0000005e <.do_clear_bss_loop>:
  5e:	1d 92       	st	X+, r1

00000060 <.do_clear_bss_start>:
  60:	a8 32       	cpi	r26, 0x28	; 40
  62:	b1 07       	cpc	r27, r17
  64:	e1 f7       	brne	.-8      	; 0x5e <.do_clear_bss_loop>
  66:	74 d1       	rcall	.+744    	; 0x350 <main>
  68:	9c c1       	rjmp	.+824    	; 0x3a2 <_exit>

0000006a <__bad_interrupt>:
  6a:	ca cf       	rjmp	.-108    	; 0x0 <__vectors>

0000006c <__vector_14>:
  6c:	1f 92       	push	r1
  6e:	0f 92       	push	r0
  70:	0f b6       	in	r0, 0x3f	; 63
  72:	0f 92       	push	r0
  74:	11 24       	eor	r1, r1
  76:	2f 93       	push	r18
  78:	8f 93       	push	r24
  7a:	9f 93       	push	r25
  7c:	ef 93       	push	r30
  7e:	ff 93       	push	r31
  80:	15 b8       	out	0x05, r1	; 5
  82:	80 91 0a 01 	lds	r24, 0x010A
  86:	8f 5f       	subi	r24, 0xFF	; 255
  88:	87 70       	andi	r24, 0x07	; 7
  8a:	80 93 0a 01 	sts	0x010A, r24
  8e:	20 91 0a 01 	lds	r18, 0x010A
  92:	81 e0       	ldi	r24, 0x01	; 1
  94:	90 e0       	ldi	r25, 0x00	; 0
  96:	02 2e       	mov	r0, r18
  98:	01 c0       	rjmp	.+2      	; 0x9c <__vector_14+0x30>
  9a:	88 0f       	add	r24, r24
  9c:	0a 94       	dec	r0
  9e:	ea f7       	brpl	.-6      	; 0x9a <__vector_14+0x2e>
  a0:	80 95       	com	r24
  a2:	98 2f       	mov	r25, r24
  a4:	9f 70       	andi	r25, 0x0F	; 15
  a6:	90 63       	ori	r25, 0x30	; 48
  a8:	98 b9       	out	0x08, r25	; 8
  aa:	80 7f       	andi	r24, 0xF0	; 240
  ac:	8b b9       	out	0x0b, r24	; 11
  ae:	e0 91 0a 01 	lds	r30, 0x010A
  b2:	f0 e0       	ldi	r31, 0x00	; 0
  b4:	e0 5e       	subi	r30, 0xE0	; 224
  b6:	fe 4f       	sbci	r31, 0xFE	; 254
  b8:	80 81       	ld	r24, Z
  ba:	85 b9       	out	0x05, r24	; 5
  bc:	86 b1       	in	r24, 0x06	; 6
  be:	80 73       	andi	r24, 0x30	; 48
  c0:	90 91 05 01 	lds	r25, 0x0105
  c4:	89 17       	cp	r24, r25
  c6:	31 f1       	breq	.+76     	; 0x114 <__vector_14+0xa8>
  c8:	90 91 04 01 	lds	r25, 0x0104
  cc:	89 13       	cpse	r24, r25
  ce:	14 c0       	rjmp	.+40     	; 0xf8 <__vector_14+0x8c>
  d0:	80 91 03 01 	lds	r24, 0x0103
  d4:	8f 5f       	subi	r24, 0xFF	; 255
  d6:	80 93 03 01 	sts	0x0103, r24
  da:	85 31       	cpi	r24, 0x15	; 21
  dc:	88 f0       	brcs	.+34     	; 0x100 <__vector_14+0x94>
  de:	80 91 04 01 	lds	r24, 0x0104
  e2:	80 93 05 01 	sts	0x0105, r24
  e6:	80 91 05 01 	lds	r24, 0x0105
  ea:	82 95       	swap	r24
  ec:	8f 70       	andi	r24, 0x0F	; 15
  ee:	93 e0       	ldi	r25, 0x03	; 3
  f0:	89 27       	eor	r24, r25
  f2:	80 93 0b 01 	sts	0x010B, r24
  f6:	04 c0       	rjmp	.+8      	; 0x100 <__vector_14+0x94>
  f8:	80 93 04 01 	sts	0x0104, r24
  fc:	10 92 03 01 	sts	0x0103, r1
 100:	20 91 02 01 	lds	r18, 0x0102
 104:	80 91 0a 01 	lds	r24, 0x010A
 108:	90 91 0b 01 	lds	r25, 0x010B
 10c:	82 0f       	add	r24, r18
 10e:	89 0f       	add	r24, r25
 110:	80 93 02 01 	sts	0x0102, r24
 114:	80 91 09 01 	lds	r24, 0x0109
 118:	8f 5f       	subi	r24, 0xFF	; 255
 11a:	80 93 09 01 	sts	0x0109, r24
 11e:	82 33       	cpi	r24, 0x32	; 50
 120:	d8 f0       	brcs	.+54     	; 0x158 <__vector_14+0xec>
 122:	10 92 09 01 	sts	0x0109, r1
 126:	80 91 06 01 	lds	r24, 0x0106
 12a:	88 23       	and	r24, r24
 12c:	29 f0       	breq	.+10     	; 0x138 <__vector_14+0xcc>
 12e:	80 91 06 01 	lds	r24, 0x0106
 132:	81 50       	subi	r24, 0x01	; 1
 134:	80 93 06 01 	sts	0x0106, r24
 138:	80 91 08 01 	lds	r24, 0x0108
 13c:	88 23       	and	r24, r24
 13e:	49 f0       	breq	.+18     	; 0x152 <__vector_14+0xe6>
 140:	80 91 08 01 	lds	r24, 0x0108
 144:	81 50       	subi	r24, 0x01	; 1
 146:	80 93 08 01 	sts	0x0108, r24
 14a:	81 11       	cpse	r24, r1
 14c:	02 c0       	rjmp	.+4      	; 0x152 <__vector_14+0xe6>
 14e:	10 92 b0 00 	sts	0x00B0, r1
 152:	81 e0       	ldi	r24, 0x01	; 1
 154:	80 93 07 01 	sts	0x0107, r24
 158:	ff 91       	pop	r31
 15a:	ef 91       	pop	r30
 15c:	9f 91       	pop	r25
 15e:	8f 91       	pop	r24
 160:	2f 91       	pop	r18
 162:	0f 90       	pop	r0
 164:	0f be       	out	0x3f, r0	; 63
 166:	0f 90       	pop	r0
 168:	1f 90       	pop	r1
 16a:	18 95       	reti

0000016c <_wait>:
 16c:	80 93 06 01 	sts	0x0106, r24
 170:	01 c0       	rjmp	.+2      	; 0x174 <_wait+0x8>
 172:	a8 95       	wdr
 174:	80 91 06 01 	lds	r24, 0x0106
 178:	81 11       	cpse	r24, r1
 17a:	fb cf       	rjmp	.-10     	; 0x172 <_wait+0x6>
 17c:	08 95       	ret

0000017e <_rand>:
 17e:	80 91 02 01 	lds	r24, 0x0102
 182:	8f 5f       	subi	r24, 0xFF	; 255
 184:	80 93 02 01 	sts	0x0102, r24
 188:	90 91 02 01 	lds	r25, 0x0102
 18c:	80 91 02 01 	lds	r24, 0x0102
 190:	88 0f       	add	r24, r24
 192:	89 27       	eor	r24, r25
 194:	08 95       	ret

00000196 <_sound>:
 196:	80 93 b3 00 	sts	0x00B3, r24
 19a:	60 93 08 01 	sts	0x0108, r22
 19e:	82 e1       	ldi	r24, 0x12	; 18
 1a0:	80 93 b0 00 	sts	0x00B0, r24
 1a4:	08 95       	ret

000001a6 <user_init>:
 1a6:	ec e0       	ldi	r30, 0x0C	; 12
 1a8:	f1 e0       	ldi	r31, 0x01	; 1
 1aa:	a4 e1       	ldi	r26, 0x14	; 20
 1ac:	b1 e0       	ldi	r27, 0x01	; 1
 1ae:	11 92       	st	Z+, r1
 1b0:	1d 92       	st	X+, r1
 1b2:	81 e0       	ldi	r24, 0x01	; 1
 1b4:	e4 31       	cpi	r30, 0x14	; 20
 1b6:	f8 07       	cpc	r31, r24
 1b8:	d1 f7       	brne	.-12     	; 0x1ae <user_init+0x8>
 1ba:	08 95       	ret

000001bc <user_main>:
 1bc:	0f 93       	push	r16
 1be:	1f 93       	push	r17
 1c0:	cf 93       	push	r28
 1c2:	df 93       	push	r29
 1c4:	80 91 1c 01 	lds	r24, 0x011C
 1c8:	8f 5f       	subi	r24, 0xFF	; 255
 1ca:	8a 30       	cpi	r24, 0x0A	; 10
 1cc:	18 f4       	brcc	.+6      	; 0x1d4 <user_main+0x18>
 1ce:	80 93 1c 01 	sts	0x011C, r24
 1d2:	32 c0       	rjmp	.+100    	; 0x238 <user_main+0x7c>
 1d4:	10 92 1c 01 	sts	0x011C, r1
 1d8:	80 91 1d 01 	lds	r24, 0x011D
 1dc:	88 23       	and	r24, r24
 1de:	19 f0       	breq	.+6      	; 0x1e6 <user_main+0x2a>
 1e0:	82 30       	cpi	r24, 0x02	; 2
 1e2:	a9 f4       	brne	.+42     	; 0x20e <user_main+0x52>
 1e4:	0a c0       	rjmp	.+20     	; 0x1fa <user_main+0x3e>
 1e6:	ec e0       	ldi	r30, 0x0C	; 12
 1e8:	f1 e0       	ldi	r31, 0x01	; 1
 1ea:	90 81       	ld	r25, Z
 1ec:	96 95       	lsr	r25
 1ee:	91 93       	st	Z+, r25
 1f0:	91 e0       	ldi	r25, 0x01	; 1
 1f2:	e4 31       	cpi	r30, 0x14	; 20
 1f4:	f9 07       	cpc	r31, r25
 1f6:	c9 f7       	brne	.-14     	; 0x1ea <user_main+0x2e>
 1f8:	1b c0       	rjmp	.+54     	; 0x230 <user_main+0x74>
 1fa:	ec e0       	ldi	r30, 0x0C	; 12
 1fc:	f1 e0       	ldi	r31, 0x01	; 1
 1fe:	90 81       	ld	r25, Z
 200:	99 0f       	add	r25, r25
 202:	91 93       	st	Z+, r25
 204:	c1 e0       	ldi	r28, 0x01	; 1
 206:	e4 31       	cpi	r30, 0x14	; 20
 208:	fc 07       	cpc	r31, r28
 20a:	c9 f7       	brne	.-14     	; 0x1fe <user_main+0x42>
 20c:	11 c0       	rjmp	.+34     	; 0x230 <user_main+0x74>
 20e:	ed e0       	ldi	r30, 0x0D	; 13
 210:	f1 e0       	ldi	r31, 0x01	; 1
 212:	ac e0       	ldi	r26, 0x0C	; 12
 214:	b1 e0       	ldi	r27, 0x01	; 1
 216:	91 91       	ld	r25, Z+
 218:	9d 93       	st	X+, r25
 21a:	d1 e0       	ldi	r29, 0x01	; 1
 21c:	e4 31       	cpi	r30, 0x14	; 20
 21e:	fd 07       	cpc	r31, r29
 220:	d1 f7       	brne	.-12     	; 0x216 <user_main+0x5a>
 222:	83 30       	cpi	r24, 0x03	; 3
 224:	11 f0       	breq	.+4      	; 0x22a <user_main+0x6e>
 226:	90 e0       	ldi	r25, 0x00	; 0
 228:	01 c0       	rjmp	.+2      	; 0x22c <user_main+0x70>
 22a:	9a ea       	ldi	r25, 0xAA	; 170
 22c:	90 93 13 01 	sts	0x0113, r25
 230:	8f 5f       	subi	r24, 0xFF	; 255
 232:	83 70       	andi	r24, 0x03	; 3
 234:	80 93 1d 01 	sts	0x011D, r24
 238:	eb e1       	ldi	r30, 0x1B	; 27
 23a:	f1 e0       	ldi	r31, 0x01	; 1
 23c:	ac e1       	ldi	r26, 0x1C	; 28
 23e:	b1 e0       	ldi	r27, 0x01	; 1
 240:	82 91       	ld	r24, -Z
 242:	8e 93       	st	-X, r24
 244:	81 e0       	ldi	r24, 0x01	; 1
 246:	e4 31       	cpi	r30, 0x14	; 20
 248:	f8 07       	cpc	r31, r24
 24a:	d1 f7       	brne	.-12     	; 0x240 <user_main+0x84>
 24c:	10 92 14 01 	sts	0x0114, r1
 250:	80 91 1e 01 	lds	r24, 0x011E
 254:	90 91 1f 01 	lds	r25, 0x011F
 258:	18 16       	cp	r1, r24
 25a:	19 06       	cpc	r1, r25
 25c:	5c f4       	brge	.+22     	; 0x274 <user_main+0xb8>
 25e:	01 96       	adiw	r24, 0x01	; 1
 260:	90 93 1f 01 	sts	0x011F, r25
 264:	80 93 1e 01 	sts	0x011E, r24
 268:	08 97       	sbiw	r24, 0x08	; 8
 26a:	24 f0       	brlt	.+8      	; 0x274 <user_main+0xb8>
 26c:	10 92 1f 01 	sts	0x011F, r1
 270:	10 92 1e 01 	sts	0x011E, r1
 274:	80 91 0b 01 	lds	r24, 0x010B
 278:	82 30       	cpi	r24, 0x02	; 2
 27a:	91 f0       	breq	.+36     	; 0x2a0 <user_main+0xe4>
 27c:	83 30       	cpi	r24, 0x03	; 3
 27e:	b1 f0       	breq	.+44     	; 0x2ac <user_main+0xf0>
 280:	81 30       	cpi	r24, 0x01	; 1
 282:	39 f4       	brne	.+14     	; 0x292 <user_main+0xd6>
 284:	80 91 00 01 	lds	r24, 0x0100
 288:	82 30       	cpi	r24, 0x02	; 2
 28a:	18 f0       	brcs	.+6      	; 0x292 <user_main+0xd6>
 28c:	81 50       	subi	r24, 0x01	; 1
 28e:	80 93 00 01 	sts	0x0100, r24
 292:	ac e0       	ldi	r26, 0x0C	; 12
 294:	b1 e0       	ldi	r27, 0x01	; 1
 296:	e4 e1       	ldi	r30, 0x14	; 20
 298:	f1 e0       	ldi	r31, 0x01	; 1
 29a:	80 e0       	ldi	r24, 0x00	; 0
 29c:	90 e0       	ldi	r25, 0x00	; 0
 29e:	1e c0       	rjmp	.+60     	; 0x2dc <user_main+0x120>
 2a0:	80 91 00 01 	lds	r24, 0x0100
 2a4:	86 30       	cpi	r24, 0x06	; 6
 2a6:	a8 f7       	brcc	.-22     	; 0x292 <user_main+0xd6>
 2a8:	8f 5f       	subi	r24, 0xFF	; 255
 2aa:	f1 cf       	rjmp	.-30     	; 0x28e <user_main+0xd2>
 2ac:	80 91 1e 01 	lds	r24, 0x011E
 2b0:	90 91 1f 01 	lds	r25, 0x011F
 2b4:	89 2b       	or	r24, r25
 2b6:	69 f7       	brne	.-38     	; 0x292 <user_main+0xd6>
 2b8:	80 e8       	ldi	r24, 0x80	; 128
 2ba:	90 e0       	ldi	r25, 0x00	; 0
 2bc:	00 90 00 01 	lds	r0, 0x0100
 2c0:	02 c0       	rjmp	.+4      	; 0x2c6 <user_main+0x10a>
 2c2:	95 95       	asr	r25
 2c4:	87 95       	ror	r24
 2c6:	0a 94       	dec	r0
 2c8:	e2 f7       	brpl	.-8      	; 0x2c2 <user_main+0x106>
 2ca:	80 93 14 01 	sts	0x0114, r24
 2ce:	81 e0       	ldi	r24, 0x01	; 1
 2d0:	90 e0       	ldi	r25, 0x00	; 0
 2d2:	90 93 1f 01 	sts	0x011F, r25
 2d6:	80 93 1e 01 	sts	0x011E, r24
 2da:	db cf       	rjmp	.-74     	; 0x292 <user_main+0xd6>
 2dc:	8d 01       	movw	r16, r26
 2de:	6c 91       	ld	r22, X
 2e0:	9f 01       	movw	r18, r30
 2e2:	50 81       	ld	r21, Z
 2e4:	45 2f       	mov	r20, r21
 2e6:	46 23       	and	r20, r22
 2e8:	21 f0       	breq	.+8      	; 0x2f2 <user_main+0x136>
 2ea:	64 27       	eor	r22, r20
 2ec:	6c 93       	st	X, r22
 2ee:	45 27       	eor	r20, r21
 2f0:	40 83       	st	Z, r20
 2f2:	11 96       	adiw	r26, 0x01	; 1
 2f4:	31 96       	adiw	r30, 0x01	; 1
 2f6:	e9 01       	movw	r28, r18
 2f8:	28 81       	ld	r18, Y
 2fa:	e8 01       	movw	r28, r16
 2fc:	38 81       	ld	r19, Y
 2fe:	23 2b       	or	r18, r19
 300:	ec 01       	movw	r28, r24
 302:	c0 5e       	subi	r28, 0xE0	; 224
 304:	de 4f       	sbci	r29, 0xFE	; 254
 306:	28 83       	st	Y, r18
 308:	01 96       	adiw	r24, 0x01	; 1
 30a:	88 30       	cpi	r24, 0x08	; 8
 30c:	91 05       	cpc	r25, r1
 30e:	31 f7       	brne	.-52     	; 0x2dc <user_main+0x120>
 310:	20 91 20 01 	lds	r18, 0x0120
 314:	30 91 00 01 	lds	r19, 0x0100
 318:	80 ec       	ldi	r24, 0xC0	; 192
 31a:	91 e0       	ldi	r25, 0x01	; 1
 31c:	03 2e       	mov	r0, r19
 31e:	02 c0       	rjmp	.+4      	; 0x324 <user_main+0x168>
 320:	95 95       	asr	r25
 322:	87 95       	ror	r24
 324:	0a 94       	dec	r0
 326:	e2 f7       	brpl	.-8      	; 0x320 <user_main+0x164>
 328:	28 2b       	or	r18, r24
 32a:	20 93 20 01 	sts	0x0120, r18
 32e:	20 91 21 01 	lds	r18, 0x0121
 332:	80 e8       	ldi	r24, 0x80	; 128
 334:	90 e0       	ldi	r25, 0x00	; 0
 336:	02 c0       	rjmp	.+4      	; 0x33c <user_main+0x180>
 338:	95 95       	asr	r25
 33a:	87 95       	ror	r24
 33c:	3a 95       	dec	r19
 33e:	e2 f7       	brpl	.-8      	; 0x338 <user_main+0x17c>
 340:	28 2b       	or	r18, r24
 342:	20 93 21 01 	sts	0x0121, r18
 346:	df 91       	pop	r29
 348:	cf 91       	pop	r28
 34a:	1f 91       	pop	r17
 34c:	0f 91       	pop	r16
 34e:	08 95       	ret

00000350 <main>:
 350:	8f ef       	ldi	r24, 0xFF	; 255
 352:	84 b9       	out	0x04, r24	; 4
 354:	8f e0       	ldi	r24, 0x0F	; 15
 356:	87 b9       	out	0x07, r24	; 7
 358:	8a ef       	ldi	r24, 0xFA	; 250
 35a:	8a b9       	out	0x0a, r24	; 10
 35c:	80 e3       	ldi	r24, 0x30	; 48
 35e:	88 b9       	out	0x08, r24	; 8
 360:	80 93 05 01 	sts	0x0105, r24
 364:	80 93 04 01 	sts	0x0104, r24
 368:	10 92 0b 01 	sts	0x010B, r1
 36c:	89 ef       	ldi	r24, 0xF9	; 249
 36e:	87 bd       	out	0x27, r24	; 39
 370:	82 e0       	ldi	r24, 0x02	; 2
 372:	84 bd       	out	0x24, r24	; 36
 374:	83 e0       	ldi	r24, 0x03	; 3
 376:	85 bd       	out	0x25, r24	; 37
 378:	80 91 6e 00 	lds	r24, 0x006E
 37c:	82 60       	ori	r24, 0x02	; 2
 37e:	80 93 6e 00 	sts	0x006E, r24
 382:	10 92 b0 00 	sts	0x00B0, r1
 386:	84 e4       	ldi	r24, 0x44	; 68
 388:	80 93 b1 00 	sts	0x00B1, r24
 38c:	0c df       	rcall	.-488    	; 0x1a6 <user_init>
 38e:	78 94       	sei
 390:	10 92 07 01 	sts	0x0107, r1
 394:	a8 95       	wdr
 396:	80 91 07 01 	lds	r24, 0x0107
 39a:	88 23       	and	r24, r24
 39c:	d9 f3       	breq	.-10     	; 0x394 <main+0x44>
 39e:	0e df       	rcall	.-484    	; 0x1bc <user_main>
 3a0:	f7 cf       	rjmp	.-18     	; 0x390 <main+0x40>

000003a2 <_exit>:
 3a2:	f8 94       	cli

000003a4 <__stop_program>:
 3a4:	ff cf       	rjmp	.-2      	; 0x3a4 <__stop_program>
